target datalayout = "e-m:e-p270:32:32-p271:32:32-p272:64:64-i64:64-i128:128-f80:128-n8:16:32:64-S128"
target triple = "x86_64-pc-linux-gnu"

%struct.URLProtocol = type { ptr, ptr, ptr, ptr, ptr, ptr, ptr, ptr, ptr, ptr, ptr, ptr, ptr, ptr, ptr, ptr, i32, i32, ptr, ptr, ptr, ptr, ptr, ptr, ptr }

@.str.11 = private unnamed_addr constant [5 x i8] c"file\00", align 1
@.str.28 = private unnamed_addr constant [66 x i8] c"abcdefghijklmnopqrstuvwxyzABCDEFGHIJKLMNOPQRSTUVWXYZ0123456789+-.\00", align 1
@.str.29 = private unnamed_addr constant [9 x i8] c"subfile,\00", align 1
@.str.30 = private unnamed_addr constant [7 x i8] c"https:\00", align 1
@.str.31 = private unnamed_addr constant [5 x i8] c"tls:\00", align 1
@.str.32 = private unnamed_addr constant [93 x i8] c"https protocol not found, recompile FFmpeg with openssl, gnutls or securetransport enabled.\0A\00", align 1

; Function Attrs: inlinehint nounwind uwtable
define internal i32 @is_dos_path(ptr noundef %0) #5 {
  %2 = alloca ptr, align 8
  store ptr %0, ptr %2, align 8, !tbaa !20
  ret i32 0
}

; Function Attrs: nounwind uwtable
define internal ptr @url_find_protocol(ptr noundef %0) #1 {
  %2 = alloca ptr, align 8
  %3 = alloca ptr, align 8
  %4 = alloca ptr, align 8
  %5 = alloca [128 x i8], align 16
  %6 = alloca [128 x i8], align 16
  %7 = alloca ptr, align 8
  %8 = alloca i64, align 8
  %9 = alloca i32, align 4
  %10 = alloca i32, align 4
  %11 = alloca ptr, align 8
  store ptr %0, ptr %3, align 8, !tbaa !20
  call void @llvm.lifetime.start.p0(i64 8, ptr %4) #10
  call void @llvm.lifetime.start.p0(i64 128, ptr %5) #10
  call void @llvm.lifetime.start.p0(i64 128, ptr %6) #10
  call void @llvm.lifetime.start.p0(i64 8, ptr %7) #10
  call void @llvm.lifetime.start.p0(i64 8, ptr %8) #10
  %12 = load ptr, ptr %3, align 8, !tbaa !20
  %13 = call i64 @strspn(ptr noundef %12, ptr noundef @.str.28) #11
  store i64 %13, ptr %8, align 8, !tbaa !47
  call void @llvm.lifetime.start.p0(i64 4, ptr %9) #10
  %14 = load ptr, ptr %3, align 8, !tbaa !20
  %15 = load i64, ptr %8, align 8, !tbaa !47
  %16 = getelementptr inbounds nuw i8, ptr %14, i64 %15
  %17 = load i8, ptr %16, align 1, !tbaa !72
  %18 = sext i8 %17 to i32
  %19 = icmp ne i32 %18, 58
  br i1 %19, label %20, label %31

20:                                               ; preds = %1
  %21 = load ptr, ptr %3, align 8, !tbaa !20
  %22 = call i32 @strncmp(ptr noundef %21, ptr noundef @.str.29, i64 noundef 8) #11
  %23 = icmp ne i32 %22, 0
  br i1 %23, label %35, label %24

24:                                               ; preds = %20
  %25 = load ptr, ptr %3, align 8, !tbaa !20
  %26 = load i64, ptr %8, align 8, !tbaa !47
  %27 = getelementptr inbounds nuw i8, ptr %25, i64 %26
  %28 = getelementptr inbounds i8, ptr %27, i64 1
  %29 = call ptr @strchr(ptr noundef %28, i32 noundef 58) #11
  %30 = icmp ne ptr %29, null
  br i1 %30, label %31, label %35

31:                                               ; preds = %24, %1
  %32 = load ptr, ptr %3, align 8, !tbaa !20
  %33 = call i32 @is_dos_path(ptr noundef %32)
  %34 = icmp ne i32 %33, 0
  br i1 %34, label %35, label %38

35:                                               ; preds = %31, %24, %20
  %36 = getelementptr inbounds [128 x i8], ptr %5, i64 0, i64 0
  %37 = call ptr @strcpy(ptr noundef %36, ptr noundef @.str.11) #10
  br label %51

38:                                               ; preds = %31
  %39 = getelementptr inbounds [128 x i8], ptr %5, i64 0, i64 0
  %40 = load ptr, ptr %3, align 8, !tbaa !20
  %41 = load i64, ptr %8, align 8, !tbaa !47
  %42 = add i64 %41, 1
  %43 = icmp ugt i64 %42, 128
  br i1 %43, label %44, label %45

44:                                               ; preds = %38
  br label %48

45:                                               ; preds = %38
  %46 = load i64, ptr %8, align 8, !tbaa !47
  %47 = add i64 %46, 1
  br label %48

48:                                               ; preds = %45, %44
  %49 = phi i64 [ 128, %44 ], [ %47, %45 ]
  %50 = call i64 @av_strlcpy(ptr noundef %39, ptr noundef %40, i64 noundef %49)
  br label %51

51:                                               ; preds = %48, %35
  %52 = getelementptr inbounds [128 x i8], ptr %6, i64 0, i64 0
  %53 = getelementptr inbounds [128 x i8], ptr %5, i64 0, i64 0
  %54 = call i64 @av_strlcpy(ptr noundef %52, ptr noundef %53, i64 noundef 128)
  %55 = getelementptr inbounds [128 x i8], ptr %6, i64 0, i64 0
  %56 = call ptr @strchr(ptr noundef %55, i32 noundef 43) #11
  store ptr %56, ptr %7, align 8, !tbaa !20
  %57 = icmp ne ptr %56, null
  br i1 %57, label %58, label %60

58:                                               ; preds = %51
  %59 = load ptr, ptr %7, align 8, !tbaa !20
  store i8 0, ptr %59, align 1, !tbaa !72
  br label %60

60:                                               ; preds = %58, %51
  %61 = call ptr @ffurl_get_protocols(ptr noundef null, ptr noundef null)
  store ptr %61, ptr %4, align 8, !tbaa !73
  %62 = load ptr, ptr %4, align 8, !tbaa !73
  %63 = icmp ne ptr %62, null
  br i1 %63, label %65, label %64

64:                                               ; preds = %60
  store ptr null, ptr %2, align 8
  store i32 1, ptr %10, align 4
  br label %119

65:                                               ; preds = %60
  store i32 0, ptr %9, align 4, !tbaa !21
  br label %66

66:                                               ; preds = %106, %65
  %67 = load ptr, ptr %4, align 8, !tbaa !73
  %68 = load i32, ptr %9, align 4, !tbaa !21
  %69 = sext i32 %68 to i64
  %70 = getelementptr inbounds ptr, ptr %67, i64 %69
  %71 = load ptr, ptr %70, align 8, !tbaa !71
  %72 = icmp ne ptr %71, null
  br i1 %72, label %73, label %109

73:                                               ; preds = %66
  call void @llvm.lifetime.start.p0(i64 8, ptr %11) #10
  %74 = load ptr, ptr %4, align 8, !tbaa !73
  %75 = load i32, ptr %9, align 4, !tbaa !21
  %76 = sext i32 %75 to i64
  %77 = getelementptr inbounds ptr, ptr %74, i64 %76
  %78 = load ptr, ptr %77, align 8, !tbaa !71
  store ptr %78, ptr %11, align 8, !tbaa !71
  %79 = getelementptr inbounds [128 x i8], ptr %5, i64 0, i64 0
  %80 = load ptr, ptr %11, align 8, !tbaa !71
  %81 = getelementptr inbounds nuw %struct.URLProtocol, ptr %80, i32 0, i32 0
  %82 = load ptr, ptr %81, align 8, !tbaa !39
  %83 = call i32 @strcmp(ptr noundef %79, ptr noundef %82) #11
  %84 = icmp ne i32 %83, 0
  br i1 %84, label %87, label %85

85:                                               ; preds = %73
  call void @av_freep(ptr noundef %4)
  %86 = load ptr, ptr %11, align 8, !tbaa !71
  store ptr %86, ptr %2, align 8
  store i32 1, ptr %10, align 4
  br label %103

87:                                               ; preds = %73
  %88 = load ptr, ptr %11, align 8, !tbaa !71
  %89 = getelementptr inbounds nuw %struct.URLProtocol, ptr %88, i32 0, i32 17
  %90 = load i32, ptr %89, align 4, !tbaa !75
  %91 = and i32 %90, 1
  %92 = icmp ne i32 %91, 0
  br i1 %92, label %93, label %102

93:                                               ; preds = %87
  %94 = getelementptr inbounds [128 x i8], ptr %6, i64 0, i64 0
  %95 = load ptr, ptr %11, align 8, !tbaa !71
  %96 = getelementptr inbounds nuw %struct.URLProtocol, ptr %95, i32 0, i32 0
  %97 = load ptr, ptr %96, align 8, !tbaa !39
  %98 = call i32 @strcmp(ptr noundef %94, ptr noundef %97) #11
  %99 = icmp ne i32 %98, 0
  br i1 %99, label %102, label %100

100:                                              ; preds = %93
  call void @av_freep(ptr noundef %4)
  %101 = load ptr, ptr %11, align 8, !tbaa !71
  store ptr %101, ptr %2, align 8
  store i32 1, ptr %10, align 4
  br label %103

102:                                              ; preds = %93, %87
  store i32 0, ptr %10, align 4
  br label %103

103:                                              ; preds = %102, %100, %85
  call void @llvm.lifetime.end.p0(i64 8, ptr %11) #10
  %104 = load i32, ptr %10, align 4
  switch i32 %104, label %119 [
    i32 0, label %105
  ]

105:                                              ; preds = %103
  br label %106

106:                                              ; preds = %105
  %107 = load i32, ptr %9, align 4, !tbaa !21
  %108 = add nsw i32 %107, 1
  store i32 %108, ptr %9, align 4, !tbaa !21
  br label %66, !llvm.loop !76

109:                                              ; preds = %66
  call void @av_freep(ptr noundef %4)
  %110 = load ptr, ptr %3, align 8, !tbaa !20
  %111 = call i32 @av_strstart(ptr noundef %110, ptr noundef @.str.30, ptr noundef null)
  %112 = icmp ne i32 %111, 0
  br i1 %112, label %117, label %113

113:                                              ; preds = %109
  %114 = load ptr, ptr %3, align 8, !tbaa !20
  %115 = call i32 @av_strstart(ptr noundef %114, ptr noundef @.str.31, ptr noundef null)
  %116 = icmp ne i32 %115, 0
  br i1 %116, label %117, label %118

117:                                              ; preds = %113, %109
  call void (ptr, i32, ptr, ...) @av_log(ptr noundef null, i32 noundef 24, ptr noundef @.str.32)
  br label %118

118:                                              ; preds = %117, %113
  store ptr null, ptr %2, align 8
  store i32 1, ptr %10, align 4
  br label %119

119:                                              ; preds = %118, %103, %64
  call void @llvm.lifetime.end.p0(i64 4, ptr %9) #10
  call void @llvm.lifetime.end.p0(i64 8, ptr %8) #10
  call void @llvm.lifetime.end.p0(i64 8, ptr %7) #10
  call void @llvm.lifetime.end.p0(i64 128, ptr %6) #10
  call void @llvm.lifetime.end.p0(i64 128, ptr %5) #10
  call void @llvm.lifetime.end.p0(i64 8, ptr %4) #10
  %120 = load ptr, ptr %2, align 8
  ret ptr %120
}