; Function Attrs: nounwind uwtable
define internal fastcc noundef ptr @url_find_protocol(ptr noundef %0) unnamed_addr #3 {
  %2 = alloca ptr, align 8
  %3 = alloca [128 x i8], align 16
  %4 = alloca [128 x i8], align 16
  call void @llvm.lifetime.start.p0(i64 8, ptr nonnull %2) #12
  call void @llvm.lifetime.start.p0(i64 128, ptr nonnull %3) #12
  call void @llvm.lifetime.start.p0(i64 128, ptr nonnull %4) #12
  %5 = tail call i64 @strspn(ptr noundef %0, ptr noundef nonnull @.str.28) #13
  %6 = getelementptr inbounds nuw i8, ptr %0, i64 %5
  %7 = load i8, ptr %6, align 1, !tbaa !70
  %.not = icmp eq i8 %7, 58
  br i1 %.not, label %13, label %8

8:                                                ; preds = %1
  %9 = tail call i32 @strncmp(ptr noundef nonnull dereferenceable(1) %0, ptr noundef nonnull dereferenceable(9) @.str.29, i64 noundef 8) #13
  %.not26 = icmp eq i32 %9, 0
  br i1 %.not26, label %10, label %17

10:                                               ; preds = %8
  %11 = getelementptr inbounds nuw i8, ptr %6, i64 1
  %12 = tail call ptr @strchr(ptr noundef nonnull dereferenceable(1) %11, i32 noundef 58) #13
  %.not27 = icmp eq ptr %12, null
  br i1 %.not27, label %17, label %13

13:                                               ; preds = %10, %1
  %14 = add i64 %5, 1
  %15 = tail call i64 @llvm.umin.i64(i64 %14, i64 128)
  %16 = call i64 @av_strlcpy(ptr noundef nonnull %3, ptr noundef nonnull %0, i64 noundef %15) #12
  br label %18

17:                                               ; preds = %10, %8
  call void @llvm.memcpy.p0.p0.i64(ptr noundef nonnull align 16 dereferenceable(5) %3, ptr noundef nonnull align 1 dereferenceable(5) @.str.11, i64 5, i1 false) #12
  br label %18

18:                                               ; preds = %13, %17
  %19 = call i64 @av_strlcpy(ptr noundef nonnull %4, ptr noundef nonnull %3, i64 noundef 128) #12
  %20 = call ptr @strchr(ptr noundef nonnull dereferenceable(1) %4, i32 noundef 43) #13
  %.not28 = icmp eq ptr %20, null
  br i1 %.not28, label %22, label %21

21:                                               ; preds = %18
  store i8 0, ptr %20, align 1, !tbaa !70
  br label %22

22:                                               ; preds = %21, %18
  %23 = call ptr @ffurl_get_protocols(ptr noundef null, ptr noundef null) #12
  store ptr %23, ptr %2, align 8, !tbaa !73
  %.not29 = icmp eq ptr %23, null
  br i1 %.not29, label %43, label %.preheader

.preheader:                                       ; preds = %22
  %24 = load ptr, ptr %23, align 8, !tbaa !76
  %.not3041 = icmp eq ptr %24, null
  br i1 %.not3041, label %._crit_edge, label %.lr.ph

.lr.ph:                                           ; preds = %.preheader, %36
  %indvars.iv = phi i64 [ %indvars.iv.next, %36 ], [ 0, %.preheader ]
  %25 = phi ptr [ %38, %36 ], [ %24, %.preheader ]
  %26 = load ptr, ptr %25, align 8, !tbaa !33
  %27 = call i32 @strcmp(ptr noundef nonnull dereferenceable(1) %3, ptr noundef nonnull dereferenceable(1) %26) #13
  %.not33 = icmp eq i32 %27, 0
  br i1 %.not33, label %28, label %29

28:                                               ; preds = %.lr.ph
  call void @av_freep(ptr noundef nonnull %2) #12
  br label %43

29:                                               ; preds = %.lr.ph
  %30 = getelementptr inbounds nuw i8, ptr %25, i64 132
  %31 = load i32, ptr %30, align 4, !tbaa !63
  %32 = and i32 %31, 1
  %.not34 = icmp eq i32 %32, 0
  br i1 %.not34, label %36, label %33

33:                                               ; preds = %29
  %34 = call i32 @strcmp(ptr noundef nonnull dereferenceable(1) %4, ptr noundef nonnull dereferenceable(1) %26) #13
  %.not35 = icmp eq i32 %34, 0
  br i1 %.not35, label %35, label %36

35:                                               ; preds = %33
  call void @av_freep(ptr noundef nonnull %2) #12
  br label %43

36:                                               ; preds = %33, %29
  %indvars.iv.next = add nuw nsw i64 %indvars.iv, 1
  %37 = getelementptr inbounds nuw ptr, ptr %23, i64 %indvars.iv.next
  %38 = load ptr, ptr %37, align 8, !tbaa !76
  %.not30 = icmp eq ptr %38, null
  br i1 %.not30, label %._crit_edge, label %.lr.ph, !llvm.loop !77

._crit_edge:                                      ; preds = %36, %.preheader
  call void @av_freep(ptr noundef nonnull %2) #12
  %39 = call i32 @av_strstart(ptr noundef %0, ptr noundef nonnull @.str.30, ptr noundef null) #12
  %.not31 = icmp eq i32 %39, 0
  br i1 %.not31, label %40, label %42

40:                                               ; preds = %._crit_edge
  %41 = call i32 @av_strstart(ptr noundef %0, ptr noundef nonnull @.str.31, ptr noundef null) #12
  %.not32 = icmp eq i32 %41, 0
  br i1 %.not32, label %43, label %42

42:                                               ; preds = %40, %._crit_edge
  call void (ptr, i32, ptr, ...) @av_log(ptr noundef null, i32 noundef 24, ptr noundef nonnull @.str.32) #12
  br label %43

43:                                               ; preds = %28, %35, %40, %42, %22
  %.0 = phi ptr [ null, %22 ], [ null, %42 ], [ null, %40 ], [ %25, %35 ], [ %25, %28 ]
  call void @llvm.lifetime.end.p0(i64 128, ptr nonnull %4) #12
  call void @llvm.lifetime.end.p0(i64 128, ptr nonnull %3) #12
  call void @llvm.lifetime.end.p0(i64 8, ptr nonnull %2) #12
  ret ptr %.0
}